target datalayout = "e-m:e-p270:32:32-p271:32:32-p272:64:64-i64:64-i128:128-f80:128-n8:16:32:64-S128"
target triple = "x86_64-pc-linux-gnu"

%struct.AVFilterContext = type { ptr, ptr, ptr, ptr, ptr, i32, ptr, ptr, i32, ptr, ptr, i32, i32, ptr, ptr, ptr, ptr, i32, ptr, i32, i32 }
%struct.ChannelMapContext = type { ptr, ptr, %struct.AVChannelLayout, ptr, i32, i32, ptr }
%struct.AVChannelLayout = type { i32, i32, %union.anon.1, ptr }
%union.anon.1 = type { i64 }
%struct.ChannelMap = type { i32, i32, i32, i32 }
%struct.AVFilterFormatsConfig = type { ptr, ptr, ptr, ptr, ptr }
%struct.AVFilterLink = type { ptr, ptr, ptr, ptr, i32, i32, i32, i32, %struct.AVRational, i32, i32, i32, %struct.AVChannelLayout, %struct.AVRational, ptr, i32, %struct.AVFilterFormatsConfig, %struct.AVFilterFormatsConfig }
%struct.AVRational = type { i32, i32 }
%struct.AVFrame = type { [8 x ptr], [8 x i32], ptr, i32, i32, i32, i32, i32, %struct.AVRational, i64, i64, %struct.AVRational, i32, ptr, i32, i32, [8 x ptr], ptr, i32, ptr, i32, i32, i32, i32, i32, i32, i32, i64, ptr, i32, ptr, ptr, i64, i64, i64, i64, ptr, %struct.AVChannelLayout, i64 }

; Function Attrs: nounwind uwtable
define internal i32 @channelmap_filter_frame(ptr noundef %0, ptr noundef %1) #1 {
  %3 = alloca i32, align 4
  %4 = alloca ptr, align 8
  %5 = alloca ptr, align 8
  %6 = alloca ptr, align 8
  %7 = alloca ptr, align 8
  %8 = alloca ptr, align 8
  %9 = alloca i32, align 4
  %10 = alloca i32, align 4
  %11 = alloca i32, align 4
  %12 = alloca i32, align 4
  %13 = alloca ptr, align 8
  %14 = alloca i32, align 4
  store ptr %0, ptr %4, align 8, !tbaa !55
  store ptr %1, ptr %5, align 8, !tbaa !57
  call void @llvm.lifetime.start.p0(i64 8, ptr %6) #8
  %15 = load ptr, ptr %4, align 8, !tbaa !55
  %16 = getelementptr inbounds nuw %struct.AVFilterLink, ptr %15, i32 0, i32 2
  %17 = load ptr, ptr %16, align 8, !tbaa !59
  store ptr %17, ptr %6, align 8, !tbaa !4
  call void @llvm.lifetime.start.p0(i64 8, ptr %7) #8
  %18 = load ptr, ptr %6, align 8, !tbaa !4
  %19 = getelementptr inbounds nuw %struct.AVFilterContext, ptr %18, i32 0, i32 7
  %20 = load ptr, ptr %19, align 8, !tbaa !65
  %21 = getelementptr inbounds ptr, ptr %20, i64 0
  %22 = load ptr, ptr %21, align 8, !tbaa !55
  store ptr %22, ptr %7, align 8, !tbaa !55
  call void @llvm.lifetime.start.p0(i64 8, ptr %8) #8
  %23 = load ptr, ptr %6, align 8, !tbaa !4
  %24 = getelementptr inbounds nuw %struct.AVFilterContext, ptr %23, i32 0, i32 9
  %25 = load ptr, ptr %24, align 8, !tbaa !9
  store ptr %25, ptr %8, align 8, !tbaa !22
  call void @llvm.lifetime.start.p0(i64 4, ptr %9) #8
  %26 = load ptr, ptr %4, align 8, !tbaa !55
  %27 = getelementptr inbounds nuw %struct.AVFilterLink, ptr %26, i32 0, i32 12
  %28 = getelementptr inbounds nuw %struct.AVChannelLayout, ptr %27, i32 0, i32 1
  %29 = load i32, ptr %28, align 4, !tbaa !66
  store i32 %29, ptr %9, align 4, !tbaa !25
  call void @llvm.lifetime.start.p0(i64 4, ptr %10) #8
  %30 = load ptr, ptr %8, align 8, !tbaa !22
  %31 = getelementptr inbounds nuw %struct.ChannelMapContext, ptr %30, i32 0, i32 4
  %32 = load i32, ptr %31, align 8, !tbaa !44
  store i32 %32, ptr %10, align 4, !tbaa !25
  call void @llvm.lifetime.start.p0(i64 4, ptr %11) #8
  call void @llvm.lifetime.start.p0(i64 4, ptr %12) #8
  %33 = load ptr, ptr %8, align 8, !tbaa !22
  %34 = getelementptr inbounds nuw %struct.ChannelMapContext, ptr %33, i32 0, i32 6
  %35 = load ptr, ptr %34, align 8, !tbaa !67
  %36 = load ptr, ptr %5, align 8, !tbaa !57
  %37 = getelementptr inbounds nuw %struct.AVFrame, ptr %36, i32 0, i32 2
  %38 = load ptr, ptr %37, align 8, !tbaa !68
  %39 = load i32, ptr %9, align 4, !tbaa !25
  %40 = sext i32 %39 to i64
  %41 = mul i64 %40, 8
  call void @llvm.memcpy.p0.p0.i64(ptr align 8 %35, ptr align 8 %38, i64 %41, i1 false)
  %42 = load i32, ptr %10, align 4, !tbaa !25
  %43 = load i32, ptr %9, align 4, !tbaa !25
  %44 = icmp sgt i32 %42, %43
  br i1 %44, label %45, label %98

45:                                               ; preds = %2
  %46 = load i32, ptr %10, align 4, !tbaa !25
  %47 = sext i32 %46 to i64
  %48 = icmp ugt i64 %47, 8
  br i1 %48, label %49, label %79

49:                                               ; preds = %45
  call void @llvm.lifetime.start.p0(i64 8, ptr %13) #8
  %50 = load i32, ptr %10, align 4, !tbaa !25
  %51 = sext i32 %50 to i64
  %52 = call noalias ptr @av_calloc(i64 noundef %51, i64 noundef 8)
  store ptr %52, ptr %13, align 8, !tbaa !72
  %53 = load ptr, ptr %13, align 8, !tbaa !72
  %54 = icmp ne ptr %53, null
  br i1 %54, label %56, label %55

55:                                               ; preds = %49
  call void @av_frame_free(ptr noundef %5)
  store i32 -12, ptr %3, align 4
  store i32 1, ptr %14, align 4
  br label %76

56:                                               ; preds = %49
  %57 = load ptr, ptr %5, align 8, !tbaa !57
  %58 = getelementptr inbounds nuw %struct.AVFrame, ptr %57, i32 0, i32 2
  %59 = load ptr, ptr %58, align 8, !tbaa !68
  %60 = load ptr, ptr %5, align 8, !tbaa !57
  %61 = getelementptr inbounds nuw %struct.AVFrame, ptr %60, i32 0, i32 0
  %62 = getelementptr inbounds [8 x ptr], ptr %61, i64 0, i64 0
  %63 = icmp eq ptr %59, %62
  br i1 %63, label %64, label %68

64:                                               ; preds = %56
  %65 = load ptr, ptr %13, align 8, !tbaa !72
  %66 = load ptr, ptr %5, align 8, !tbaa !57
  %67 = getelementptr inbounds nuw %struct.AVFrame, ptr %66, i32 0, i32 2
  store ptr %65, ptr %67, align 8, !tbaa !68
  br label %75

68:                                               ; preds = %56
  %69 = load ptr, ptr %5, align 8, !tbaa !57
  %70 = getelementptr inbounds nuw %struct.AVFrame, ptr %69, i32 0, i32 2
  %71 = load ptr, ptr %70, align 8, !tbaa !68
  call void @av_free(ptr noundef %71)
  %72 = load ptr, ptr %13, align 8, !tbaa !72
  %73 = load ptr, ptr %5, align 8, !tbaa !57
  %74 = getelementptr inbounds nuw %struct.AVFrame, ptr %73, i32 0, i32 2
  store ptr %72, ptr %74, align 8, !tbaa !68
  br label %75

75:                                               ; preds = %68, %64
  store i32 0, ptr %14, align 4
  br label %76

76:                                               ; preds = %75, %55
  call void @llvm.lifetime.end.p0(i64 8, ptr %13) #8
  %77 = load i32, ptr %14, align 4
  switch i32 %77, label %172 [
    i32 0, label %78
  ]

78:                                               ; preds = %76
  br label %97

79:                                               ; preds = %45
  %80 = load ptr, ptr %5, align 8, !tbaa !57
  %81 = getelementptr inbounds nuw %struct.AVFrame, ptr %80, i32 0, i32 2
  %82 = load ptr, ptr %81, align 8, !tbaa !68
  %83 = load ptr, ptr %5, align 8, !tbaa !57
  %84 = getelementptr inbounds nuw %struct.AVFrame, ptr %83, i32 0, i32 0
  %85 = getelementptr inbounds [8 x ptr], ptr %84, i64 0, i64 0
  %86 = icmp ne ptr %82, %85
  br i1 %86, label %87, label %96

87:                                               ; preds = %79
  %88 = load ptr, ptr %5, align 8, !tbaa !57
  %89 = getelementptr inbounds nuw %struct.AVFrame, ptr %88, i32 0, i32 2
  %90 = load ptr, ptr %89, align 8, !tbaa !68
  call void @av_free(ptr noundef %90)
  %91 = load ptr, ptr %5, align 8, !tbaa !57
  %92 = getelementptr inbounds nuw %struct.AVFrame, ptr %91, i32 0, i32 0
  %93 = getelementptr inbounds [8 x ptr], ptr %92, i64 0, i64 0
  %94 = load ptr, ptr %5, align 8, !tbaa !57
  %95 = getelementptr inbounds nuw %struct.AVFrame, ptr %94, i32 0, i32 2
  store ptr %93, ptr %95, align 8, !tbaa !68
  br label %96

96:                                               ; preds = %87, %79
  br label %97

97:                                               ; preds = %96, %78
  br label %98

98:                                               ; preds = %97, %2
  store i32 0, ptr %11, align 4, !tbaa !25
  br label %99

99:                                               ; preds = %131, %98
  %100 = load i32, ptr %11, align 4, !tbaa !25
  %101 = load i32, ptr %10, align 4, !tbaa !25
  %102 = icmp slt i32 %100, %101
  br i1 %102, label %103, label %134

103:                                              ; preds = %99
  %104 = load ptr, ptr %8, align 8, !tbaa !22
  %105 = getelementptr inbounds nuw %struct.ChannelMapContext, ptr %104, i32 0, i32 6
  %106 = load ptr, ptr %105, align 8, !tbaa !67
  %107 = load ptr, ptr %8, align 8, !tbaa !22
  %108 = getelementptr inbounds nuw %struct.ChannelMapContext, ptr %107, i32 0, i32 3
  %109 = load ptr, ptr %108, align 8, !tbaa !36
  %110 = load i32, ptr %11, align 4, !tbaa !25
  %111 = sext i32 %110 to i64
  %112 = getelementptr inbounds %struct.ChannelMap, ptr %109, i64 %111
  %113 = getelementptr inbounds nuw %struct.ChannelMap, ptr %112, i32 0, i32 2
  %114 = load i32, ptr %113, align 4, !tbaa !37
  %115 = sext i32 %114 to i64
  %116 = getelementptr inbounds ptr, ptr %106, i64 %115
  %117 = load ptr, ptr %116, align 8, !tbaa !28
  %118 = load ptr, ptr %5, align 8, !tbaa !57
  %119 = getelementptr inbounds nuw %struct.AVFrame, ptr %118, i32 0, i32 2
  %120 = load ptr, ptr %119, align 8, !tbaa !68
  %121 = load ptr, ptr %8, align 8, !tbaa !22
  %122 = getelementptr inbounds nuw %struct.ChannelMapContext, ptr %121, i32 0, i32 3
  %123 = load ptr, ptr %122, align 8, !tbaa !36
  %124 = load i32, ptr %11, align 4, !tbaa !25
  %125 = sext i32 %124 to i64
  %126 = getelementptr inbounds %struct.ChannelMap, ptr %123, i64 %125
  %127 = getelementptr inbounds nuw %struct.ChannelMap, ptr %126, i32 0, i32 3
  %128 = load i32, ptr %127, align 4, !tbaa !39
  %129 = sext i32 %128 to i64
  %130 = getelementptr inbounds ptr, ptr %120, i64 %129
  store ptr %117, ptr %130, align 8, !tbaa !28
  br label %131

131:                                              ; preds = %103
  %132 = load i32, ptr %11, align 4, !tbaa !25
  %133 = add nsw i32 %132, 1
  store i32 %133, ptr %11, align 4, !tbaa !25
  br label %99, !llvm.loop !73

134:                                              ; preds = %99
  %135 = load ptr, ptr %5, align 8, !tbaa !57
  %136 = getelementptr inbounds nuw %struct.AVFrame, ptr %135, i32 0, i32 0
  %137 = getelementptr inbounds [8 x ptr], ptr %136, i64 0, i64 0
  %138 = load ptr, ptr %5, align 8, !tbaa !57
  %139 = getelementptr inbounds nuw %struct.AVFrame, ptr %138, i32 0, i32 2
  %140 = load ptr, ptr %139, align 8, !tbaa !68
  %141 = icmp ne ptr %137, %140
  br i1 %141, label %142, label %159

142:                                              ; preds = %134
  %143 = load ptr, ptr %5, align 8, !tbaa !57
  %144 = getelementptr inbounds nuw %struct.AVFrame, ptr %143, i32 0, i32 0
  %145 = getelementptr inbounds [8 x ptr], ptr %144, i64 0, i64 0
  %146 = load ptr, ptr %5, align 8, !tbaa !57
  %147 = getelementptr inbounds nuw %struct.AVFrame, ptr %146, i32 0, i32 2
  %148 = load ptr, ptr %147, align 8, !tbaa !68
  %149 = load i32, ptr %10, align 4, !tbaa !25
  %150 = sext i32 %149 to i64
  %151 = icmp ugt i64 8, %150
  br i1 %151, label %152, label %155

152:                                              ; preds = %142
  %153 = load i32, ptr %10, align 4, !tbaa !25
  %154 = sext i32 %153 to i64
  br label %156

155:                                              ; preds = %142
  br label %156

156:                                              ; preds = %155, %152
  %157 = phi i64 [ %154, %152 ], [ 8, %155 ]
  %158 = mul i64 %157, 8
  call void @llvm.memcpy.p0.p0.i64(ptr align 8 %145, ptr align 8 %148, i64 %158, i1 false)
  br label %159

159:                                              ; preds = %156, %134
  %160 = load ptr, ptr %5, align 8, !tbaa !57
  %161 = getelementptr inbounds nuw %struct.AVFrame, ptr %160, i32 0, i32 37
  %162 = load ptr, ptr %7, align 8, !tbaa !55
  %163 = getelementptr inbounds nuw %struct.AVFilterLink, ptr %162, i32 0, i32 12
  %164 = call i32 @av_channel_layout_copy(ptr noundef %161, ptr noundef %163)
  store i32 %164, ptr %12, align 4, !tbaa !25
  %165 = icmp slt i32 %164, 0
  br i1 %165, label %166, label %168

166:                                              ; preds = %159
  %167 = load i32, ptr %12, align 4, !tbaa !25
  store i32 %167, ptr %3, align 4
  store i32 1, ptr %14, align 4
  br label %172

168:                                              ; preds = %159
  %169 = load ptr, ptr %7, align 8, !tbaa !55
  %170 = load ptr, ptr %5, align 8, !tbaa !57
  %171 = call i32 @ff_filter_frame(ptr noundef %169, ptr noundef %170)
  store i32 %171, ptr %3, align 4
  store i32 1, ptr %14, align 4
  br label %172

172:                                              ; preds = %168, %166, %76
  call void @llvm.lifetime.end.p0(i64 4, ptr %12) #8
  call void @llvm.lifetime.end.p0(i64 4, ptr %11) #8
  call void @llvm.lifetime.end.p0(i64 4, ptr %10) #8
  call void @llvm.lifetime.end.p0(i64 4, ptr %9) #8
  call void @llvm.lifetime.end.p0(i64 8, ptr %8) #8
  call void @llvm.lifetime.end.p0(i64 8, ptr %7) #8
  call void @llvm.lifetime.end.p0(i64 8, ptr %6) #8
  %173 = load i32, ptr %3, align 4
  ret i32 %173
}