; Function Attrs: nounwind uwtable
define internal i32 @channelmap_filter_frame(ptr noundef readonly captures(none) %0, ptr noundef %1) #1 {
  %3 = alloca ptr, align 8
  store ptr %1, ptr %3, align 8, !tbaa !47
  %4 = getelementptr inbounds nuw i8, ptr %0, i64 16
  %5 = load ptr, ptr %4, align 8, !tbaa !49
  %6 = getelementptr inbounds nuw i8, ptr %5, i64 56
  %7 = load ptr, ptr %6, align 8, !tbaa !56
  %8 = load ptr, ptr %7, align 8, !tbaa !57
  %9 = getelementptr inbounds nuw i8, ptr %5, i64 72
  %10 = load ptr, ptr %9, align 8, !tbaa !4
  %11 = getelementptr inbounds nuw i8, ptr %0, i64 76
  %12 = load i32, ptr %11, align 4, !tbaa !59
  %13 = getelementptr inbounds nuw i8, ptr %10, i64 48
  %14 = load i32, ptr %13, align 8, !tbaa !38
  %15 = getelementptr inbounds nuw i8, ptr %10, i64 56
  %16 = load ptr, ptr %15, align 8, !tbaa !60
  %17 = getelementptr inbounds nuw i8, ptr %1, i64 96
  %18 = load ptr, ptr %17, align 8, !tbaa !61
  %19 = sext i32 %12 to i64
  %20 = shl nsw i64 %19, 3
  tail call void @llvm.memcpy.p0.p0.i64(ptr align 8 %16, ptr align 8 %18, i64 %20, i1 false)
  %21 = icmp sgt i32 %14, %12
  br i1 %21, label %22, label %..thread_crit_edge

..thread_crit_edge:                               ; preds = %2
  %.pre.pre = load ptr, ptr %17, align 8, !tbaa !61
  br label %.thread

22:                                               ; preds = %2
  %23 = icmp ugt i32 %14, 8
  br i1 %23, label %24, label %33

24:                                               ; preds = %22
  %25 = sext i32 %14 to i64
  %26 = tail call noalias ptr @av_calloc(i64 noundef %25, i64 noundef 8) #10
  %.not39.not = icmp eq ptr %26, null
  br i1 %.not39.not, label %32, label %27

27:                                               ; preds = %24
  %28 = load ptr, ptr %17, align 8, !tbaa !61
  %29 = icmp eq ptr %28, %1
  br i1 %29, label %30, label %31

30:                                               ; preds = %27
  store ptr %26, ptr %17, align 8, !tbaa !61
  br label %.thread

31:                                               ; preds = %27
  tail call void @av_free(ptr noundef %28) #10
  store ptr %26, ptr %17, align 8, !tbaa !61
  br label %.thread

32:                                               ; preds = %24
  call void @av_frame_free(ptr noundef nonnull %3) #10
  br label %62

33:                                               ; preds = %22
  %34 = load ptr, ptr %17, align 8, !tbaa !61
  %.not = icmp eq ptr %34, %1
  br i1 %.not, label %.thread, label %35

35:                                               ; preds = %33
  tail call void @av_free(ptr noundef %34) #10
  store ptr %1, ptr %17, align 8, !tbaa !61
  br label %.thread

.thread:                                          ; preds = %..thread_crit_edge, %31, %30, %35, %33
  %.pre = phi ptr [ %.pre.pre, %..thread_crit_edge ], [ %26, %31 ], [ %26, %30 ], [ %1, %35 ], [ %34, %33 ]
  %36 = icmp sgt i32 %14, 0
  br i1 %36, label %.lr.ph, label %._crit_edge

.lr.ph:                                           ; preds = %.thread
  %37 = load ptr, ptr %15, align 8, !tbaa !60
  %38 = getelementptr inbounds nuw i8, ptr %10, i64 40
  %39 = load ptr, ptr %38, align 8, !tbaa !29
  %wide.trip.count = zext nneg i32 %14 to i64
  br label %40

40:                                               ; preds = %.lr.ph, %40
  %indvars.iv = phi i64 [ 0, %.lr.ph ], [ %indvars.iv.next, %40 ]
  %41 = getelementptr inbounds nuw %struct.ChannelMap, ptr %39, i64 %indvars.iv
  %42 = getelementptr inbounds nuw i8, ptr %41, i64 8
  %43 = load i32, ptr %42, align 4, !tbaa !31
  %44 = sext i32 %43 to i64
  %45 = getelementptr inbounds ptr, ptr %37, i64 %44
  %46 = load ptr, ptr %45, align 8, !tbaa !20
  %47 = getelementptr inbounds nuw i8, ptr %41, i64 12
  %48 = load i32, ptr %47, align 4, !tbaa !33
  %49 = sext i32 %48 to i64
  %50 = getelementptr inbounds ptr, ptr %.pre, i64 %49
  store ptr %46, ptr %50, align 8, !tbaa !20
  %indvars.iv.next = add nuw nsw i64 %indvars.iv, 1
  %exitcond.not = icmp eq i64 %indvars.iv.next, %wide.trip.count
  br i1 %exitcond.not, label %._crit_edge, label %40, !llvm.loop !66

._crit_edge:                                      ; preds = %40, %.thread
  %.not40 = icmp eq ptr %1, %.pre
  br i1 %.not40, label %55, label %51

51:                                               ; preds = %._crit_edge
  %52 = tail call i32 @llvm.umin.i32(i32 %14, i32 8)
  %53 = shl nuw nsw i32 %52, 3
  %54 = zext nneg i32 %53 to i64
  tail call void @llvm.memcpy.p0.p0.i64(ptr nonnull align 8 %1, ptr align 8 %.pre, i64 %54, i1 false)
  br label %55

55:                                               ; preds = %51, %._crit_edge
  %56 = getelementptr inbounds nuw i8, ptr %1, i64 384
  %57 = getelementptr inbounds nuw i8, ptr %8, i64 72
  %58 = tail call i32 @av_channel_layout_copy(ptr noundef nonnull %56, ptr noundef nonnull %57) #10
  %59 = icmp slt i32 %58, 0
  br i1 %59, label %62, label %60

60:                                               ; preds = %55
  %61 = tail call i32 @ff_filter_frame(ptr noundef nonnull %8, ptr noundef nonnull %1) #10
  br label %62

62:                                               ; preds = %32, %55, %60
  %.1 = phi i32 [ %61, %60 ], [ -12, %32 ], [ %58, %55 ]
  ret i32 %.1
}